target datalayout = "e-m:e-p270:32:32-p271:32:32-p272:64:64-i64:64-i128:128-f80:128-n8:16:32:64-S128"
target triple = "x86_64-pc-linux-gnu"

%class.OopHandle = type { ptr }
%class.MemoryPool = type <{ ptr, ptr, i32, [4 x i8], i64, i64, i8, [7 x i8], [5 x ptr], i32, [4 x i8], %class.MemoryUsage, %class.MemoryUsage, ptr, ptr, ptr, ptr, %class.OopHandle, i8, [7 x i8] }>
%class.MemoryUsage = type { i64, i64, i64, i64 }
%class.SensorInfo = type { %class.OopHandle, i8, i64, i32, i32, %class.MemoryUsage }
%class.MutexLocker = type { %class.MutexLockerImpl }
%class.MutexLockerImpl = type { ptr }
%class.ThresholdSupport = type { i8, i8, i64, i64 }

@Notification_lock = external global ptr, align 8

; Function Attrs: mustprogress nounwind uwtable
define linkonce_odr hidden noundef i64 @_ZNK11MemoryUsage4usedEv(ptr noundef nonnull align 8 dereferenceable(32) %0) #1 comdat align 2 {
  %2 = alloca ptr, align 8
  store ptr %0, ptr %2, align 8
  %3 = load ptr, ptr %2, align 8
  %4 = getelementptr inbounds %class.MemoryUsage, ptr %3, i32 0, i32 1
  %5 = load i64, ptr %4, align 8
  ret i64 %5
}

; Function Attrs: mustprogress nounwind uwtable
define linkonce_odr hidden void @_ZN15MutexLockerImplD2Ev(ptr noundef nonnull align 8 dereferenceable(8) %0) unnamed_addr #1 comdat align 2 {
  %2 = alloca ptr, align 8
  store ptr %0, ptr %2, align 8
  %3 = load ptr, ptr %2, align 8
  %4 = getelementptr inbounds %class.MutexLockerImpl, ptr %3, i32 0, i32 0
  %5 = load ptr, ptr %4, align 8
  %6 = icmp ne ptr %5, null
  br i1 %6, label %7, label %10

7:                                                ; preds = %1
  %8 = getelementptr inbounds %class.MutexLockerImpl, ptr %3, i32 0, i32 0
  %9 = load ptr, ptr %8, align 8
  call void @_ZN5Mutex6unlockEv(ptr noundef nonnull align 8 dereferenceable(104) %9)
  br label %10

10:                                               ; preds = %7, %1
  ret void
}

; Function Attrs: mustprogress nounwind uwtable
define linkonce_odr hidden noundef zeroext i1 @_ZN16ThresholdSupport24is_low_threshold_crossedE11MemoryUsage(ptr noundef nonnull align 8 dereferenceable(24) %0, ptr noundef byval(%class.MemoryUsage) align 8 %1) #1 comdat align 2 {
  %3 = alloca i1, align 1
  %4 = alloca ptr, align 8
  store ptr %0, ptr %4, align 8
  %5 = load ptr, ptr %4, align 8
  %6 = getelementptr inbounds %class.ThresholdSupport, ptr %5, i32 0, i32 1
  %7 = load i8, ptr %6, align 1
  %8 = trunc i8 %7 to i1
  br i1 %8, label %9, label %18

9:                                                ; preds = %2
  %10 = getelementptr inbounds %class.ThresholdSupport, ptr %5, i32 0, i32 3
  %11 = load i64, ptr %10, align 8
  %12 = icmp ugt i64 %11, 0
  br i1 %12, label %13, label %18

13:                                               ; preds = %9
  %14 = call noundef i64 @_ZNK11MemoryUsage4usedEv(ptr noundef nonnull align 8 dereferenceable(32) %1)
  %15 = getelementptr inbounds %class.ThresholdSupport, ptr %5, i32 0, i32 3
  %16 = load i64, ptr %15, align 8
  %17 = icmp ult i64 %14, %16
  store i1 %17, ptr %3, align 1
  br label %19

18:                                               ; preds = %9, %2
  store i1 false, ptr %3, align 1
  br label %19

19:                                               ; preds = %18, %13
  %20 = load i1, ptr %3, align 1
  ret i1 %20
}

; Function Attrs: mustprogress nounwind uwtable
define linkonce_odr hidden noundef zeroext i1 @_ZN16ThresholdSupport25is_high_threshold_crossedE11MemoryUsage(ptr noundef nonnull align 8 dereferenceable(24) %0, ptr noundef byval(%class.MemoryUsage) align 8 %1) #1 comdat align 2 {
  %3 = alloca i1, align 1
  %4 = alloca ptr, align 8
  store ptr %0, ptr %4, align 8
  %5 = load ptr, ptr %4, align 8
  %6 = getelementptr inbounds %class.ThresholdSupport, ptr %5, i32 0, i32 0
  %7 = load i8, ptr %6, align 8
  %8 = trunc i8 %7 to i1
  br i1 %8, label %9, label %18

9:                                                ; preds = %2
  %10 = getelementptr inbounds %class.ThresholdSupport, ptr %5, i32 0, i32 2
  %11 = load i64, ptr %10, align 8
  %12 = icmp ugt i64 %11, 0
  br i1 %12, label %13, label %18

13:                                               ; preds = %9
  %14 = call noundef i64 @_ZNK11MemoryUsage4usedEv(ptr noundef nonnull align 8 dereferenceable(32) %1)
  %15 = getelementptr inbounds %class.ThresholdSupport, ptr %5, i32 0, i32 2
  %16 = load i64, ptr %15, align 8
  %17 = icmp uge i64 %14, %16
  store i1 %17, ptr %3, align 1
  br label %19

18:                                               ; preds = %9, %2
  store i1 false, ptr %3, align 1
  br label %19

19:                                               ; preds = %18, %13
  %20 = load i1, ptr %3, align 1
  ret i1 %20
}

; Function Attrs: mustprogress nounwind uwtable
define linkonce_odr hidden void @_ZN15MutexLockerImplC2EP5MutexNS0_18SafepointCheckFlagE(ptr noundef nonnull align 8 dereferenceable(8) %0, ptr noundef %1, i32 noundef %2) unnamed_addr #1 comdat align 2 {
  %4 = alloca ptr, align 8
  %5 = alloca ptr, align 8
  %6 = alloca i32, align 4
  %7 = alloca i8, align 1
  store ptr %0, ptr %4, align 8
  store ptr %1, ptr %5, align 8
  store i32 %2, ptr %6, align 4
  %8 = load ptr, ptr %4, align 8
  %9 = getelementptr inbounds %class.MutexLockerImpl, ptr %8, i32 0, i32 0
  %10 = load ptr, ptr %5, align 8
  store ptr %10, ptr %9, align 8
  %11 = load i32, ptr %6, align 4
  %12 = icmp eq i32 %11, 1
  %13 = zext i1 %12 to i8
  store i8 %13, ptr %7, align 1
  %14 = getelementptr inbounds %class.MutexLockerImpl, ptr %8, i32 0, i32 0
  %15 = load ptr, ptr %14, align 8
  %16 = icmp ne ptr %15, null
  br i1 %16, label %17, label %27

17:                                               ; preds = %3
  %18 = load i8, ptr %7, align 1
  %19 = trunc i8 %18 to i1
  br i1 %19, label %20, label %23

20:                                               ; preds = %17
  %21 = getelementptr inbounds %class.MutexLockerImpl, ptr %8, i32 0, i32 0
  %22 = load ptr, ptr %21, align 8
  call void @_ZN5Mutex28lock_without_safepoint_checkEv(ptr noundef nonnull align 8 dereferenceable(104) %22)
  br label %26

23:                                               ; preds = %17
  %24 = getelementptr inbounds %class.MutexLockerImpl, ptr %8, i32 0, i32 0
  %25 = load ptr, ptr %24, align 8
  call void @_ZN5Mutex4lockEv(ptr noundef nonnull align 8 dereferenceable(104) %25)
  br label %26

26:                                               ; preds = %23, %20
  br label %27

27:                                               ; preds = %26, %3
  ret void
}

; Function Attrs: mustprogress nounwind uwtable
define linkonce_odr hidden void @_ZN11MutexLockerD2Ev(ptr noundef nonnull align 8 dereferenceable(8) %0) unnamed_addr #1 comdat align 2 {
  %2 = alloca ptr, align 8
  store ptr %0, ptr %2, align 8
  %3 = load ptr, ptr %2, align 8
  call void @_ZN15MutexLockerImplD2Ev(ptr noundef nonnull align 8 dereferenceable(8) %3) #7
  ret void
}

; Function Attrs: mustprogress nounwind uwtable
define linkonce_odr hidden noundef zeroext i1 @_ZN10SensorInfo20has_pending_requestsEv(ptr noundef nonnull align 8 dereferenceable(64) %0) #1 comdat align 2 {
  %2 = alloca ptr, align 8
  store ptr %0, ptr %2, align 8
  %3 = load ptr, ptr %2, align 8
  %4 = getelementptr inbounds %class.SensorInfo, ptr %3, i32 0, i32 3
  %5 = load i32, ptr %4, align 8
  %6 = icmp sgt i32 %5, 0
  br i1 %6, label %11, label %7

7:                                                ; preds = %1
  %8 = getelementptr inbounds %class.SensorInfo, ptr %3, i32 0, i32 4
  %9 = load i32, ptr %8, align 4
  %10 = icmp sgt i32 %9, 0
  br label %11

11:                                               ; preds = %7, %1
  %12 = phi i1 [ true, %1 ], [ %10, %7 ]
  ret i1 %12
}

; Function Attrs: mustprogress nounwind uwtable
define hidden void @_ZN10SensorInfo24set_counter_sensor_levelE11MemoryUsageP16ThresholdSupport(ptr noundef nonnull align 8 dereferenceable(64) %0, ptr noundef byval(%class.MemoryUsage) align 8 %1, ptr noundef %2) #1 align 2 {
  %4 = alloca ptr, align 8
  %5 = alloca ptr, align 8
  %6 = alloca i8, align 1
  %7 = alloca %class.MemoryUsage, align 8
  %8 = alloca i8, align 1
  %9 = alloca %class.MemoryUsage, align 8
  store ptr %0, ptr %4, align 8
  store ptr %2, ptr %5, align 8
  %10 = load ptr, ptr %4, align 8
  %11 = load ptr, ptr %5, align 8
  call void @llvm.memcpy.p0.p0.i64(ptr align 8 %7, ptr align 8 %1, i64 32, i1 false)
  %12 = call noundef zeroext i1 @_ZN16ThresholdSupport25is_high_threshold_crossedE11MemoryUsage(ptr noundef nonnull align 8 dereferenceable(24) %11, ptr noundef byval(%class.MemoryUsage) align 8 %7)
  %13 = zext i1 %12 to i8
  store i8 %13, ptr %6, align 1
  %14 = load ptr, ptr %5, align 8
  call void @llvm.memcpy.p0.p0.i64(ptr align 8 %9, ptr align 8 %1, i64 32, i1 false)
  %15 = call noundef zeroext i1 @_ZN16ThresholdSupport24is_low_threshold_crossedE11MemoryUsage(ptr noundef nonnull align 8 dereferenceable(24) %14, ptr noundef byval(%class.MemoryUsage) align 8 %9)
  %16 = zext i1 %15 to i8
  store i8 %16, ptr %8, align 1
  %17 = load i8, ptr %6, align 1
  %18 = trunc i8 %17 to i1
  br i1 %18, label %19, label %25

19:                                               ; preds = %3
  %20 = getelementptr inbounds %class.SensorInfo, ptr %10, i32 0, i32 3
  %21 = load i32, ptr %20, align 8
  %22 = add nsw i32 %21, 1
  store i32 %22, ptr %20, align 8
  %23 = getelementptr inbounds %class.SensorInfo, ptr %10, i32 0, i32 5
  call void @llvm.memcpy.p0.p0.i64(ptr align 8 %23, ptr align 8 %1, i64 32, i1 false)
  %24 = getelementptr inbounds %class.SensorInfo, ptr %10, i32 0, i32 4
  store i32 0, ptr %24, align 4
  br label %41

25:                                               ; preds = %3
  %26 = load i8, ptr %8, align 1
  %27 = trunc i8 %26 to i1
  br i1 %27, label %28, label %40

28:                                               ; preds = %25
  %29 = getelementptr inbounds %class.SensorInfo, ptr %10, i32 0, i32 1
  %30 = load i8, ptr %29, align 8
  %31 = trunc i8 %30 to i1
  br i1 %31, label %36, label %32

32:                                               ; preds = %28
  %33 = getelementptr inbounds %class.SensorInfo, ptr %10, i32 0, i32 3
  %34 = load i32, ptr %33, align 8
  %35 = icmp sgt i32 %34, 0
  br i1 %35, label %36, label %40

36:                                               ; preds = %32, %28
  %37 = getelementptr inbounds %class.SensorInfo, ptr %10, i32 0, i32 4
  %38 = load i32, ptr %37, align 4
  %39 = add nsw i32 %38, 1
  store i32 %39, ptr %37, align 4
  br label %40

40:                                               ; preds = %36, %32, %25
  br label %41

41:                                               ; preds = %40, %19
  ret void
}

; Function Attrs: mustprogress nounwind uwtable
define linkonce_odr hidden void @_ZN11MutexLockerC2EP5MutexNS0_18SafepointCheckFlagE(ptr noundef nonnull align 8 dereferenceable(8) %0, ptr noundef %1, i32 noundef %2) unnamed_addr #1 comdat align 2 {
  %4 = alloca ptr, align 8
  %5 = alloca ptr, align 8
  %6 = alloca i32, align 4
  store ptr %0, ptr %4, align 8
  store ptr %1, ptr %5, align 8
  store i32 %2, ptr %6, align 4
  %7 = load ptr, ptr %4, align 8
  %8 = load ptr, ptr %5, align 8
  %9 = load i32, ptr %6, align 4
  call void @_ZN15MutexLockerImplC2EP5MutexNS0_18SafepointCheckFlagE(ptr noundef nonnull align 8 dereferenceable(8) %7, ptr noundef %8, i32 noundef %9)
  ret void
}

; Function Attrs: mustprogress nounwind uwtable
define linkonce_odr hidden noundef i64 @_ZNK16ThresholdSupport14high_thresholdEv(ptr noundef nonnull align 8 dereferenceable(24) %0) #1 comdat align 2 {
  %2 = alloca ptr, align 8
  store ptr %0, ptr %2, align 8
  %3 = load ptr, ptr %2, align 8
  %4 = getelementptr inbounds %class.ThresholdSupport, ptr %3, i32 0, i32 2
  %5 = load i64, ptr %4, align 8
  ret i64 %5
}

; Function Attrs: mustprogress nounwind uwtable
define linkonce_odr hidden noundef zeroext i1 @_ZN16ThresholdSupport27is_high_threshold_supportedEv(ptr noundef nonnull align 8 dereferenceable(24) %0) #1 comdat align 2 {
  %2 = alloca ptr, align 8
  store ptr %0, ptr %2, align 8
  %3 = load ptr, ptr %2, align 8
  %4 = getelementptr inbounds %class.ThresholdSupport, ptr %3, i32 0, i32 0
  %5 = load i8, ptr %4, align 8
  %6 = trunc i8 %5 to i1
  ret i1 %6
}

; Function Attrs: mustprogress nounwind uwtable
define linkonce_odr hidden noundef ptr @_ZN10MemoryPool18gc_usage_thresholdEv(ptr noundef nonnull align 8 dereferenceable(201) %0) #1 comdat align 2 {
  %2 = alloca ptr, align 8
  store ptr %0, ptr %2, align 8
  %3 = load ptr, ptr %2, align 8
  %4 = getelementptr inbounds %class.MemoryPool, ptr %3, i32 0, i32 14
  %5 = load ptr, ptr %4, align 8
  ret ptr %5
}

; Function Attrs: mustprogress nounwind uwtable
define linkonce_odr hidden noundef ptr @_ZN10MemoryPool15gc_usage_sensorEv(ptr noundef nonnull align 8 dereferenceable(201) %0) #1 comdat align 2 {
  %2 = alloca ptr, align 8
  store ptr %0, ptr %2, align 8
  %3 = load ptr, ptr %2, align 8
  %4 = getelementptr inbounds %class.MemoryPool, ptr %3, i32 0, i32 16
  %5 = load ptr, ptr %4, align 8
  ret ptr %5
}

; Function Attrs: mustprogress nounwind uwtable
define hidden void @_ZN17LowMemoryDetector22detect_after_gc_memoryEP10MemoryPool(ptr noundef %0) #1 align 2 {
  %2 = alloca ptr, align 8
  %3 = alloca ptr, align 8
  %4 = alloca %class.MutexLocker, align 8
  %5 = alloca %class.MemoryUsage, align 8
  %6 = alloca %class.MemoryUsage, align 8
  store ptr %0, ptr %2, align 8
  %7 = load ptr, ptr %2, align 8
  %8 = call noundef ptr @_ZN10MemoryPool15gc_usage_sensorEv(ptr noundef nonnull align 8 dereferenceable(201) %7)
  store ptr %8, ptr %3, align 8
  %9 = load ptr, ptr %3, align 8
  %10 = icmp eq ptr %9, null
  br i1 %10, label %20, label %11

11:                                               ; preds = %1
  %12 = load ptr, ptr %2, align 8
  %13 = call noundef ptr @_ZN10MemoryPool18gc_usage_thresholdEv(ptr noundef nonnull align 8 dereferenceable(201) %12)
  %14 = call noundef zeroext i1 @_ZN16ThresholdSupport27is_high_threshold_supportedEv(ptr noundef nonnull align 8 dereferenceable(24) %13)
  br i1 %14, label %15, label %20

15:                                               ; preds = %11
  %16 = load ptr, ptr %2, align 8
  %17 = call noundef ptr @_ZN10MemoryPool18gc_usage_thresholdEv(ptr noundef nonnull align 8 dereferenceable(201) %16)
  %18 = call noundef i64 @_ZNK16ThresholdSupport14high_thresholdEv(ptr noundef nonnull align 8 dereferenceable(24) %17)
  %19 = icmp eq i64 %18, 0
  br i1 %19, label %20, label %21

20:                                               ; preds = %15, %11, %1
  br label %35

21:                                               ; preds = %15
  %22 = load ptr, ptr @Notification_lock, align 8
  call void @_ZN11MutexLockerC2EP5MutexNS0_18SafepointCheckFlagE(ptr noundef nonnull align 8 dereferenceable(8) %4, ptr noundef %22, i32 noundef 1)
  %23 = load ptr, ptr %2, align 8
  %24 = load ptr, ptr %23, align 8
  %25 = getelementptr inbounds ptr, ptr %24, i64 7
  %26 = load ptr, ptr %25, align 8
  call void %26(ptr dead_on_unwind writable sret(%class.MemoryUsage) align 8 %5, ptr noundef nonnull align 8 dereferenceable(201) %23)
  %27 = load ptr, ptr %3, align 8
  call void @llvm.memcpy.p0.p0.i64(ptr align 8 %6, ptr align 8 %5, i64 32, i1 false)
  %28 = load ptr, ptr %2, align 8
  %29 = call noundef ptr @_ZN10MemoryPool18gc_usage_thresholdEv(ptr noundef nonnull align 8 dereferenceable(201) %28)
  call void @_ZN10SensorInfo24set_counter_sensor_levelE11MemoryUsageP16ThresholdSupport(ptr noundef nonnull align 8 dereferenceable(64) %27, ptr noundef byval(%class.MemoryUsage) align 8 %6, ptr noundef %29)
  %30 = load ptr, ptr %3, align 8
  %31 = call noundef zeroext i1 @_ZN10SensorInfo20has_pending_requestsEv(ptr noundef nonnull align 8 dereferenceable(64) %30)
  br i1 %31, label %32, label %34

32:                                               ; preds = %21
  %33 = load ptr, ptr @Notification_lock, align 8
  call void @_ZN7Monitor10notify_allEv(ptr noundef nonnull align 8 dereferenceable(104) %33)
  br label %34

34:                                               ; preds = %32, %21
  call void @_ZN11MutexLockerD2Ev(ptr noundef nonnull align 8 dereferenceable(8) %4) #7
  br label %35

35:                                               ; preds = %34, %20
  ret void
}