; Function Attrs: mustprogress nounwind uwtable
define hidden void @_ZN17LowMemoryDetector22detect_after_gc_memoryEP10MemoryPool(ptr noundef %0) local_unnamed_addr #1 align 2 {
  %.sroa.5 = alloca { i64, i64 }, align 8
  %2 = alloca %class.MemoryUsage, align 8
  %3 = getelementptr inbounds i8, ptr %0, i64 184
  %4 = load ptr, ptr %3, align 8
  %5 = icmp eq ptr %4, null
  br i1 %5, label %_ZN11MutexLockerD2Ev.exit, label %6

6:                                                ; preds = %1
  %7 = getelementptr inbounds i8, ptr %0, i64 168
  %8 = load ptr, ptr %7, align 8
  %9 = load i8, ptr %8, align 8
  %10 = trunc i8 %9 to i1
  br i1 %10, label %11, label %_ZN11MutexLockerD2Ev.exit

11:                                               ; preds = %6
  %12 = getelementptr inbounds i8, ptr %8, i64 8
  %13 = load i64, ptr %12, align 8
  %14 = icmp eq i64 %13, 0
  br i1 %14, label %_ZN11MutexLockerD2Ev.exit, label %15

15:                                               ; preds = %11
  %16 = load ptr, ptr @Notification_lock, align 8
  %.not.i.i = icmp eq ptr %16, null
  br i1 %.not.i.i, label %_ZN11MutexLockerC2EP5MutexNS0_18SafepointCheckFlagE.exit, label %17

17:                                               ; preds = %15
  tail call void @_ZN5Mutex28lock_without_safepoint_checkEv(ptr noundef nonnull align 8 dereferenceable(104) %16) #12
  br label %_ZN11MutexLockerC2EP5MutexNS0_18SafepointCheckFlagE.exit

_ZN11MutexLockerC2EP5MutexNS0_18SafepointCheckFlagE.exit: ; preds = %15, %17
  %18 = load ptr, ptr %0, align 8
  %19 = getelementptr inbounds i8, ptr %18, i64 56
  %20 = load ptr, ptr %19, align 8
  call void %20(ptr dead_on_unwind nonnull writable sret(%class.MemoryUsage) align 8 %2, ptr noundef nonnull align 8 dereferenceable(201) %0) #12
  %.sroa.014.0.copyload = load i64, ptr %2, align 8
  %.sroa.2.0..sroa_idx = getelementptr inbounds i8, ptr %2, i64 8
  %.sroa.2.0.copyload = load i64, ptr %.sroa.2.0..sroa_idx, align 8
  %21 = freeze i64 %.sroa.2.0.copyload
  %.sroa.3.0..sroa_idx = getelementptr inbounds i8, ptr %2, i64 16
  call void @llvm.lifetime.start.p0(i64 16, ptr nonnull %.sroa.5)
  call void @llvm.memcpy.p0.p0.i64(ptr noundef nonnull align 8 dereferenceable(16) %.sroa.5, ptr noundef nonnull align 8 dereferenceable(16) %.sroa.3.0..sroa_idx, i64 16, i1 false)
  %22 = load ptr, ptr %7, align 8
  %23 = load i8, ptr %22, align 8
  %24 = trunc i8 %23 to i1
  br i1 %24, label %_ZN16ThresholdSupport25is_high_threshold_crossedE11MemoryUsage.exit.i, label %_ZN16ThresholdSupport25is_high_threshold_crossedE11MemoryUsage.exit.thread.i

_ZN16ThresholdSupport25is_high_threshold_crossedE11MemoryUsage.exit.i: ; preds = %_ZN11MutexLockerC2EP5MutexNS0_18SafepointCheckFlagE.exit
  %25 = getelementptr inbounds i8, ptr %22, i64 8
  %26 = load i64, ptr %25, align 8
  %27 = add i64 %26, -1
  %spec.select.i = icmp ult i64 %27, %21
  %28 = getelementptr inbounds i8, ptr %22, i64 1
  %29 = load i8, ptr %28, align 1
  %30 = trunc i8 %29 to i1
  br i1 %30, label %_ZN16ThresholdSupport24is_low_threshold_crossedE11MemoryUsage.exit.i, label %_ZN16ThresholdSupport24is_low_threshold_crossedE11MemoryUsage.exit.thread.i

_ZN16ThresholdSupport25is_high_threshold_crossedE11MemoryUsage.exit.thread.i: ; preds = %_ZN11MutexLockerC2EP5MutexNS0_18SafepointCheckFlagE.exit
  %31 = getelementptr inbounds i8, ptr %22, i64 1
  %32 = load i8, ptr %31, align 1
  %33 = trunc i8 %32 to i1
  br i1 %33, label %_ZN16ThresholdSupport24is_low_threshold_crossedE11MemoryUsage.exit.thread23.i, label %_ZN10SensorInfo24set_counter_sensor_levelE11MemoryUsageP16ThresholdSupport.exit

_ZN16ThresholdSupport24is_low_threshold_crossedE11MemoryUsage.exit.thread23.i: ; preds = %_ZN16ThresholdSupport25is_high_threshold_crossedE11MemoryUsage.exit.thread.i
  %34 = getelementptr inbounds i8, ptr %22, i64 16
  %35 = load i64, ptr %34, align 8
  %36 = icmp ult i64 %21, %35
  br i1 %36, label %47, label %_ZN10SensorInfo24set_counter_sensor_levelE11MemoryUsageP16ThresholdSupport.exit

_ZN16ThresholdSupport24is_low_threshold_crossedE11MemoryUsage.exit.i: ; preds = %_ZN16ThresholdSupport25is_high_threshold_crossedE11MemoryUsage.exit.i
  br i1 %spec.select.i, label %37, label %43

_ZN16ThresholdSupport24is_low_threshold_crossedE11MemoryUsage.exit.thread.i: ; preds = %_ZN16ThresholdSupport25is_high_threshold_crossedE11MemoryUsage.exit.i
  br i1 %spec.select.i, label %37, label %_ZN10SensorInfo24set_counter_sensor_levelE11MemoryUsageP16ThresholdSupport.exit

37:                                               ; preds = %_ZN16ThresholdSupport24is_low_threshold_crossedE11MemoryUsage.exit.thread.i, %_ZN16ThresholdSupport24is_low_threshold_crossedE11MemoryUsage.exit.i
  %38 = getelementptr inbounds i8, ptr %4, i64 24
  %39 = load i32, ptr %38, align 8
  %40 = add nsw i32 %39, 1
  store i32 %40, ptr %38, align 8
  %41 = getelementptr inbounds i8, ptr %4, i64 32
  store i64 %.sroa.014.0.copyload, ptr %41, align 8
  %.sroa.4.0..sroa_idx = getelementptr inbounds i8, ptr %4, i64 40
  store i64 %21, ptr %.sroa.4.0..sroa_idx, align 8
  %.sroa.5.0..sroa_idx = getelementptr inbounds i8, ptr %4, i64 48
  call void @llvm.memcpy.p0.p0.i64(ptr noundef nonnull align 8 dereferenceable(16) %.sroa.5.0..sroa_idx, ptr noundef nonnull align 8 dereferenceable(16) %.sroa.5, i64 16, i1 false)
  %42 = getelementptr inbounds i8, ptr %4, i64 28
  store i32 0, ptr %42, align 4
  br label %_ZN10SensorInfo24set_counter_sensor_levelE11MemoryUsageP16ThresholdSupport.exit

43:                                               ; preds = %_ZN16ThresholdSupport24is_low_threshold_crossedE11MemoryUsage.exit.i
  %44 = getelementptr inbounds i8, ptr %22, i64 16
  %45 = load i64, ptr %44, align 8
  %46 = icmp ult i64 %21, %45
  br i1 %46, label %47, label %_ZN10SensorInfo24set_counter_sensor_levelE11MemoryUsageP16ThresholdSupport.exit

47:                                               ; preds = %43, %_ZN16ThresholdSupport24is_low_threshold_crossedE11MemoryUsage.exit.thread23.i
  %48 = getelementptr inbounds i8, ptr %4, i64 8
  %49 = load i8, ptr %48, align 8
  %50 = trunc i8 %49 to i1
  %51 = getelementptr inbounds i8, ptr %4, i64 24
  %52 = load i32, ptr %51, align 8
  %53 = icmp sgt i32 %52, 0
  %or.cond.i = select i1 %50, i1 true, i1 %53
  br i1 %or.cond.i, label %54, label %_ZN10SensorInfo24set_counter_sensor_levelE11MemoryUsageP16ThresholdSupport.exit

54:                                               ; preds = %47
  %55 = getelementptr inbounds i8, ptr %4, i64 28
  %56 = load i32, ptr %55, align 4
  %57 = add nsw i32 %56, 1
  store i32 %57, ptr %55, align 4
  br label %_ZN10SensorInfo24set_counter_sensor_levelE11MemoryUsageP16ThresholdSupport.exit

_ZN10SensorInfo24set_counter_sensor_levelE11MemoryUsageP16ThresholdSupport.exit: ; preds = %_ZN16ThresholdSupport25is_high_threshold_crossedE11MemoryUsage.exit.thread.i, %_ZN16ThresholdSupport24is_low_threshold_crossedE11MemoryUsage.exit.thread23.i, %_ZN16ThresholdSupport24is_low_threshold_crossedE11MemoryUsage.exit.thread.i, %37, %43, %47, %54
  call void @llvm.lifetime.end.p0(i64 16, ptr nonnull %.sroa.5)
  %58 = getelementptr inbounds i8, ptr %4, i64 24
  %59 = load i32, ptr %58, align 8
  %60 = icmp sgt i32 %59, 0
  %61 = getelementptr inbounds i8, ptr %4, i64 28
  %62 = load i32, ptr %61, align 4
  %63 = icmp sgt i32 %62, 0
  %64 = select i1 %60, i1 true, i1 %63
  br i1 %64, label %65, label %67

65:                                               ; preds = %_ZN10SensorInfo24set_counter_sensor_levelE11MemoryUsageP16ThresholdSupport.exit
  %66 = load ptr, ptr @Notification_lock, align 8
  call void @_ZN7Monitor10notify_allEv(ptr noundef nonnull align 8 dereferenceable(104) %66) #12
  br label %67

67:                                               ; preds = %65, %_ZN10SensorInfo24set_counter_sensor_levelE11MemoryUsageP16ThresholdSupport.exit
  br i1 %.not.i.i, label %_ZN11MutexLockerD2Ev.exit, label %68

68:                                               ; preds = %67
  call void @_ZN5Mutex6unlockEv(ptr noundef nonnull align 8 dereferenceable(104) %16) #12
  br label %_ZN11MutexLockerD2Ev.exit

_ZN11MutexLockerD2Ev.exit:                        ; preds = %68, %67, %1, %6, %11
  ret void
}